; Function Attrs: mustprogress nounwind uwtable
define dso_local void @_ZN4llvm15MachineFunction9addInvokeEPNS_17MachineBasicBlockEPNS_8MCSymbolES4_(ptr noundef nonnull align 8 dereferenceable(1041) %0, ptr noundef %1, ptr noundef %2, ptr noundef %3) local_unnamed_addr #0 align 2 {
  %5 = tail call noundef nonnull align 8 dereferenceable(120) ptr @_ZN4llvm15MachineFunction25getOrCreateLandingPadInfoEPNS_17MachineBasicBlockE(ptr noundef nonnull align 8 dereferenceable(1041) %0, ptr noundef %1)
  %6 = getelementptr inbounds nuw i8, ptr %5, i64 8
  %7 = tail call noundef i64 @_ZNK4llvm15SmallVectorBaseIjE4sizeEv(ptr noundef nonnull align 8 dereferenceable(16) %6) #25
  %8 = add i64 %7, 1
  %9 = tail call noundef i64 @_ZNK4llvm15SmallVectorBaseIjE8capacityEv(ptr noundef nonnull align 8 dereferenceable(16) %6) #25
  %.not.i.i.i = icmp ugt i64 %8, %9
  br i1 %.not.i.i.i, label %10, label %_ZN4llvm23SmallVectorTemplateBaseIPNS_8MCSymbolELb1EE9push_backES2_.exit

10:                                               ; preds = %4
  %11 = getelementptr inbounds nuw i8, ptr %5, i64 24
  tail call void @_ZN4llvm15SmallVectorBaseIjE8grow_podEPvmm(ptr noundef nonnull align 8 dereferenceable(16) %6, ptr noundef nonnull %11, i64 noundef %8, i64 noundef 8) #25
  br label %_ZN4llvm23SmallVectorTemplateBaseIPNS_8MCSymbolELb1EE9push_backES2_.exit

_ZN4llvm23SmallVectorTemplateBaseIPNS_8MCSymbolELb1EE9push_backES2_.exit: ; preds = %4, %10
  %12 = load ptr, ptr %6, align 8
  %13 = tail call noundef i64 @_ZNK4llvm15SmallVectorBaseIjE4sizeEv(ptr noundef nonnull align 8 dereferenceable(16) %6) #25
  %14 = getelementptr inbounds ptr, ptr %12, i64 %13
  %15 = ptrtoint ptr %2 to i64
  store i64 %15, ptr %14, align 1
  %16 = tail call noundef i64 @_ZNK4llvm15SmallVectorBaseIjE4sizeEv(ptr noundef nonnull align 8 dereferenceable(16) %6) #25
  %17 = add i64 %16, 1
  tail call void @_ZN4llvm15SmallVectorBaseIjE8set_sizeEm(ptr noundef nonnull align 8 dereferenceable(16) %6, i64 noundef %17) #25
  %18 = getelementptr inbounds nuw i8, ptr %5, i64 32
  %19 = tail call noundef i64 @_ZNK4llvm15SmallVectorBaseIjE4sizeEv(ptr noundef nonnull align 8 dereferenceable(16) %18) #25
  %20 = add i64 %19, 1
  %21 = tail call noundef i64 @_ZNK4llvm15SmallVectorBaseIjE8capacityEv(ptr noundef nonnull align 8 dereferenceable(16) %18) #25
  %.not.i.i.i6 = icmp ugt i64 %20, %21
  br i1 %.not.i.i.i6, label %22, label %_ZN4llvm23SmallVectorTemplateBaseIPNS_8MCSymbolELb1EE9push_backES2_.exit7

22:                                               ; preds = %_ZN4llvm23SmallVectorTemplateBaseIPNS_8MCSymbolELb1EE9push_backES2_.exit
  %23 = getelementptr inbounds nuw i8, ptr %5, i64 48
  tail call void @_ZN4llvm15SmallVectorBaseIjE8grow_podEPvmm(ptr noundef nonnull align 8 dereferenceable(16) %18, ptr noundef nonnull %23, i64 noundef %20, i64 noundef 8) #25
  br label %_ZN4llvm23SmallVectorTemplateBaseIPNS_8MCSymbolELb1EE9push_backES2_.exit7

_ZN4llvm23SmallVectorTemplateBaseIPNS_8MCSymbolELb1EE9push_backES2_.exit7: ; preds = %_ZN4llvm23SmallVectorTemplateBaseIPNS_8MCSymbolELb1EE9push_backES2_.exit, %22
  %24 = load ptr, ptr %18, align 8
  %25 = tail call noundef i64 @_ZNK4llvm15SmallVectorBaseIjE4sizeEv(ptr noundef nonnull align 8 dereferenceable(16) %18) #25
  %26 = getelementptr inbounds ptr, ptr %24, i64 %25
  %27 = ptrtoint ptr %3 to i64
  store i64 %27, ptr %26, align 1
  %28 = tail call noundef i64 @_ZNK4llvm15SmallVectorBaseIjE4sizeEv(ptr noundef nonnull align 8 dereferenceable(16) %18) #25
  %29 = add i64 %28, 1
  tail call void @_ZN4llvm15SmallVectorBaseIjE8set_sizeEm(ptr noundef nonnull align 8 dereferenceable(16) %18, i64 noundef %29) #25
  ret void
}